target datalayout = "e-m:e-p270:32:32-p271:32:32-p272:64:64-i64:64-i128:128-f80:128-n8:16:32:64-S128"
target triple = "x86_64-pc-linux-gnu"

%class.RAROptions = type { i32, i32, i8, i8, i8, i64, [2048 x i32], [2048 x i32], i32, i8, [2048 x i32], [2048 x i32], i32, i32, i32, i32, [2048 x i32], [2048 x i32], i8, i8, i8, [2048 x i32], i32, i32, i32, i32, i32, i32, i32, i32, i8, i8, i8, i8, i8, i32, i32, i8, i8, i8, i8, i8, i32, i32, i64, i32, i8, i8, i8, i32, i32, i8, i8, i8, i8, i32, i32, i8, i8, i8, i8, [128 x i32], [128 x i32], i8, i8, i8, i8, i8, %class.RarTime, %class.RarTime, %class.RarTime, i8, i8, i8, %class.RarTime, %class.RarTime, %class.RarTime, i8, i8, i8, i64, i64, i8, i8, i8, [16 x %struct.FilterMode], [2048 x i32], i32, i32, i32, i32, i32, i32, i8, [2048 x i32], i32, [2048 x i32], i32, i32, i64, ptr, ptr, ptr }
%class.RarTime = type { i64 }
%struct.FilterMode = type { i32, i32, i32 }

; Function Attrs: mustprogress nounwind uwtable
define noundef zeroext i1 @_ZN11CommandData12CheckWinSizeEv(ptr noundef nonnull align 8 dereferenceable(100904) %0) #1 align 2 {
  %2 = alloca i1, align 1
  %3 = alloca ptr, align 8
  %4 = alloca i64, align 8
  %5 = alloca i64, align 8
  store ptr %0, ptr %3, align 8
  %6 = load ptr, ptr %3, align 8
  store i64 4294967296, ptr %4, align 8
  store i64 65536, ptr %5, align 8
  br label %7

7:                                                ; preds = %17, %1
  %8 = load i64, ptr %5, align 8
  %9 = icmp ule i64 %8, 4294967296
  br i1 %9, label %10, label %20

10:                                               ; preds = %7
  %11 = getelementptr inbounds %class.RAROptions, ptr %6, i32 0, i32 5
  %12 = load i64, ptr %11, align 8
  %13 = load i64, ptr %5, align 8
  %14 = icmp eq i64 %12, %13
  br i1 %14, label %15, label %16

15:                                               ; preds = %10
  store i1 true, ptr %2, align 1
  br label %22

16:                                               ; preds = %10
  br label %17

17:                                               ; preds = %16
  %18 = load i64, ptr %5, align 8
  %19 = mul i64 %18, 2
  store i64 %19, ptr %5, align 8
  br label %7, !llvm.loop !23

20:                                               ; preds = %7
  %21 = getelementptr inbounds %class.RAROptions, ptr %6, i32 0, i32 5
  store i64 4194304, ptr %21, align 8
  store i1 false, ptr %2, align 1
  br label %22

22:                                               ; preds = %20, %15
  %23 = load i1, ptr %2, align 1
  ret i1 %23
}