; Function Attrs: mustprogress nofree norecurse nosync nounwind memory(argmem: readwrite) uwtable
define noundef zeroext i1 @_ZN11CommandData12CheckWinSizeEv(ptr noundef nonnull align 8 captures(none) dereferenceable(100904) %0) local_unnamed_addr #9 align 2 {
  %2 = getelementptr inbounds nuw i8, ptr %0, i64 16
  %3 = load i64, ptr %2, align 8
  br label %7

4:                                                ; preds = %7
  %5 = shl nuw nsw i64 %.06, 1
  %6 = icmp ult i64 %.06, 2147483649
  br i1 %6, label %7, label %9, !llvm.loop !23

7:                                                ; preds = %1, %4
  %.06 = phi i64 [ 65536, %1 ], [ %5, %4 ]
  %8 = icmp eq i64 %3, %.06
  br i1 %8, label %.loopexit, label %4

9:                                                ; preds = %4
  store i64 4194304, ptr %2, align 8
  br label %.loopexit

.loopexit:                                        ; preds = %7, %9
  ret i1 %8
}